; Function Attrs: nounwind uwtable
define hidden noundef i32 @boost_cont_global_sync_lock() local_unnamed_addr #0 {
  %1 = load i64, ptr @mparams, align 8, !tbaa !3
  %.not = icmp eq i64 %1, 0
  br i1 %.not, label %2, label %3

2:                                                ; preds = %0
  tail call fastcc void @init_mparams()
  br label %3

3:                                                ; preds = %2, %0
  %4 = atomicrmw xchg ptr @malloc_global_mutex, i32 1 seq_cst, align 4
  %.not1 = icmp eq i32 %4, 0
  br i1 %.not1, label %spin_acquire_lock.exit, label %.preheader

.preheader:                                       ; preds = %3, %.preheader.backedge
  %.0.i = phi i32 [ %8, %.preheader.backedge ], [ 0, %3 ]
  %5 = load volatile i32, ptr @malloc_global_mutex, align 4, !tbaa !13
  %.not.i = icmp eq i32 %5, 0
  br i1 %.not.i, label %6, label %.critedge.i

6:                                                ; preds = %.preheader
  %7 = atomicrmw xchg ptr @malloc_global_mutex, i32 1 seq_cst, align 4
  %.not2.i = icmp eq i32 %7, 0
  br i1 %.not2.i, label %spin_acquire_lock.exit, label %.critedge.i

.critedge.i:                                      ; preds = %6, %.preheader
  %8 = add nuw nsw i32 %.0.i, 1
  %9 = and i32 %8, 63
  %10 = icmp eq i32 %9, 0
  br i1 %10, label %11, label %.preheader.backedge

11:                                               ; preds = %.critedge.i
  %12 = tail call i32 @sched_yield() #17
  br label %.preheader.backedge

.preheader.backedge:                              ; preds = %11, %.critedge.i
  br label %.preheader, !llvm.loop !14

spin_acquire_lock.exit:                           ; preds = %6, %3
  ret i32 1
}